(dp1
S'type'
p2
(dp3
S'length'
p4
I50
sS'unique'
p5
I00
sS'sortable'
p6
I3
sS'sql'
p7
S'VARCHAR(50)'
p8
sS'notnull'
p9
I00
sg2
S'string'
p10
ssS'version'
p11
(dp12
g4
I50
sg5
I00
sg6
I5
sg7
S'VARCHAR(50)'
p13
sg9
I00
sg2
g10
ssS'os'
p14
(dp15
g4
I50
sg5
I00
sg6
I2
sg7
S'VARCHAR(50)'
p16
sg9
I00
sg2
g10
ssS'id'
p17
(dp18
g4
I512
sg5
I00
sg6
I1
sg7
S'INT AUTO_INCREMENT NOT NULL'
p19
sg9
I00
sg2
g17
ssS'arch'
p20
(dp21
g4
I10
sg5
I00
sg6
I4
sg7
S'VARCHAR(10)'
p22
sg9
I00
sg2
g10
ss.